#include <math.h>
#include <stdio.h>
#include <stdlib.h>
#include <string.h>
#include <iostream>
using namespace std;


int divmet(int n,int i);   
int main()
{
    int n=0;  //????? 
    int t=0;  //???? 
    int sum;  //??????? 
    cin>>t;  
    for(int i=0;i<t;i++)
    {
        sum=0;
        cin>>n;
        for(int j=2;j<=n;j++)    
        {
            sum=sum+divmet(n,j);
        }
        cout<<sum<<endl;
    }
    return 0;
}
int divmet(int n,int i)    
{
    int num=0;
    if(n%i==0)
    {
        if(n==i)       
        {
            return 1;
        }
        for(int j=2;j<=i;j++)
        {
             num=num+divmet(n/i,j);   //?? 
        }
           return num;
    }
        
    else
    {
        return 0;
    }               
}
